; Function Attrs: nounwind uwtable
define i32 @Wln_ReadFindToken(ptr noundef %0, ptr noundef %1) local_unnamed_addr #0 {
  %.not.i = icmp eq ptr %0, null
  br i1 %.not.i, label %3, label %5

3:                                                ; preds = %2
  %4 = tail call noalias noundef dereferenceable_or_null(2) ptr @malloc(i64 noundef 2) #11
  store i16 92, ptr %4, align 1
  br label %10

5:                                                ; preds = %2
  %6 = tail call i64 @strlen(ptr noundef nonnull dereferenceable(1) %0) #12
  %7 = add i64 %6, 2
  %8 = tail call noalias ptr @malloc(i64 noundef %7) #11
  %9 = tail call i32 (ptr, ptr, ...) @sprintf(ptr noundef nonnull dereferenceable(1) %8, ptr noundef nonnull dereferenceable(1) @.str.7, ptr noundef nonnull @.str, ptr noundef nonnull %0) #13
  br label %10

10:                                               ; preds = %3, %5
  %.0.i = phi ptr [ %8, %5 ], [ %4, %3 ]
  %11 = tail call i32 @Abc_NamStrFindOrAdd(ptr noundef %1, ptr noundef nonnull %.0.i, ptr noundef null) #13
  tail call void @free(ptr noundef nonnull %.0.i) #13
  ret i32 %11
}